target datalayout = "e-m:e-p270:32:32-p271:32:32-p272:64:64-i64:64-i128:128-f80:128-n8:16:32:64-S128"
target triple = "x86_64-pc-linux-gnu"

; Function Attrs: nounwind uwtable
define internal i32 @encode_mcu_AC_refine_prepare(ptr noundef %0, ptr noundef %1, i32 noundef %2, i32 noundef %3, ptr noundef %4, ptr noundef %5) #0 {
  %7 = alloca ptr, align 8
  %8 = alloca ptr, align 8
  %9 = alloca i32, align 4
  %10 = alloca i32, align 4
  %11 = alloca ptr, align 8
  %12 = alloca ptr, align 8
  %13 = alloca i32, align 4
  %14 = alloca i32, align 4
  %15 = alloca i32, align 4
  %16 = alloca i32, align 4
  %17 = alloca i64, align 8
  %18 = alloca i64, align 8
  %19 = alloca i32, align 4
  store ptr %0, ptr %7, align 8, !tbaa !79
  store ptr %1, ptr %8, align 8, !tbaa !87
  store i32 %2, ptr %9, align 4, !tbaa !35
  store i32 %3, ptr %10, align 4, !tbaa !35
  store ptr %4, ptr %11, align 8, !tbaa !79
  store ptr %5, ptr %12, align 8, !tbaa !36
  call void @llvm.lifetime.start.p0(i64 4, ptr %13) #6
  call void @llvm.lifetime.start.p0(i64 4, ptr %14) #6
  call void @llvm.lifetime.start.p0(i64 4, ptr %15) #6
  call void @llvm.lifetime.start.p0(i64 4, ptr %16) #6
  store i32 0, ptr %16, align 4, !tbaa !35
  call void @llvm.lifetime.start.p0(i64 8, ptr %17) #6
  store i64 0, ptr %17, align 8, !tbaa !84
  call void @llvm.lifetime.start.p0(i64 8, ptr %18) #6
  store i64 0, ptr %18, align 8, !tbaa !84
  call void @llvm.lifetime.start.p0(i64 4, ptr %19) #6
  %20 = load i32, ptr %9, align 4, !tbaa !35
  store i32 %20, ptr %19, align 4, !tbaa !35
  store i32 0, ptr %13, align 4, !tbaa !35
  br label %21

21:                                               ; preds = %76, %6
  %22 = load i32, ptr %13, align 4, !tbaa !35
  %23 = load i32, ptr %19, align 4, !tbaa !35
  %24 = icmp slt i32 %22, %23
  br i1 %24, label %25, label %79

25:                                               ; preds = %21
  %26 = load ptr, ptr %7, align 8, !tbaa !79
  %27 = load ptr, ptr %8, align 8, !tbaa !87
  %28 = load i32, ptr %13, align 4, !tbaa !35
  %29 = sext i32 %28 to i64
  %30 = getelementptr inbounds i32, ptr %27, i64 %29
  %31 = load i32, ptr %30, align 4, !tbaa !35
  %32 = sext i32 %31 to i64
  %33 = getelementptr inbounds i16, ptr %26, i64 %32
  %34 = load i16, ptr %33, align 2, !tbaa !81
  %35 = sext i16 %34 to i32
  store i32 %35, ptr %14, align 4, !tbaa !35
  %36 = load i32, ptr %14, align 4, !tbaa !35
  %37 = ashr i32 %36, 31
  store i32 %37, ptr %15, align 4, !tbaa !35
  %38 = load i32, ptr %15, align 4, !tbaa !35
  %39 = load i32, ptr %14, align 4, !tbaa !35
  %40 = xor i32 %39, %38
  store i32 %40, ptr %14, align 4, !tbaa !35
  %41 = load i32, ptr %15, align 4, !tbaa !35
  %42 = load i32, ptr %14, align 4, !tbaa !35
  %43 = sub nsw i32 %42, %41
  store i32 %43, ptr %14, align 4, !tbaa !35
  %44 = load i32, ptr %10, align 4, !tbaa !35
  %45 = load i32, ptr %14, align 4, !tbaa !35
  %46 = ashr i32 %45, %44
  store i32 %46, ptr %14, align 4, !tbaa !35
  %47 = load i32, ptr %14, align 4, !tbaa !35
  %48 = icmp ne i32 %47, 0
  br i1 %48, label %49, label %63

49:                                               ; preds = %25
  %50 = load i32, ptr %13, align 4, !tbaa !35
  %51 = zext i32 %50 to i64
  %52 = shl i64 1, %51
  %53 = load i64, ptr %17, align 8, !tbaa !84
  %54 = or i64 %53, %52
  store i64 %54, ptr %17, align 8, !tbaa !84
  %55 = load i32, ptr %15, align 4, !tbaa !35
  %56 = add nsw i32 %55, 1
  %57 = sext i32 %56 to i64
  %58 = load i32, ptr %13, align 4, !tbaa !35
  %59 = zext i32 %58 to i64
  %60 = shl i64 %57, %59
  %61 = load i64, ptr %18, align 8, !tbaa !84
  %62 = or i64 %61, %60
  store i64 %62, ptr %18, align 8, !tbaa !84
  br label %63

63:                                               ; preds = %49, %25
  %64 = load i32, ptr %14, align 4, !tbaa !35
  %65 = trunc i32 %64 to i16
  %66 = load ptr, ptr %11, align 8, !tbaa !79
  %67 = load i32, ptr %13, align 4, !tbaa !35
  %68 = sext i32 %67 to i64
  %69 = getelementptr inbounds i16, ptr %66, i64 %68
  store i16 %65, ptr %69, align 2, !tbaa !81
  %70 = load i32, ptr %14, align 4, !tbaa !35
  %71 = icmp eq i32 %70, 1
  br i1 %71, label %72, label %75

72:                                               ; preds = %63
  %73 = load i32, ptr %13, align 4, !tbaa !35
  %74 = add nsw i32 %73, 0
  store i32 %74, ptr %16, align 4, !tbaa !35
  br label %75

75:                                               ; preds = %72, %63
  br label %76

76:                                               ; preds = %75
  %77 = load i32, ptr %13, align 4, !tbaa !35
  %78 = add nsw i32 %77, 1
  store i32 %78, ptr %13, align 4, !tbaa !35
  br label %21, !llvm.loop !94

79:                                               ; preds = %21
  %80 = load i64, ptr %17, align 8, !tbaa !84
  %81 = load ptr, ptr %12, align 8, !tbaa !36
  %82 = getelementptr inbounds i64, ptr %81, i64 0
  store i64 %80, ptr %82, align 8, !tbaa !84
  %83 = load i64, ptr %18, align 8, !tbaa !84
  %84 = load ptr, ptr %12, align 8, !tbaa !36
  %85 = getelementptr inbounds i64, ptr %84, i64 1
  store i64 %83, ptr %85, align 8, !tbaa !84
  %86 = load i32, ptr %16, align 4, !tbaa !35
  call void @llvm.lifetime.end.p0(i64 4, ptr %19) #6
  call void @llvm.lifetime.end.p0(i64 8, ptr %18) #6
  call void @llvm.lifetime.end.p0(i64 8, ptr %17) #6
  call void @llvm.lifetime.end.p0(i64 4, ptr %16) #6
  call void @llvm.lifetime.end.p0(i64 4, ptr %15) #6
  call void @llvm.lifetime.end.p0(i64 4, ptr %14) #6
  call void @llvm.lifetime.end.p0(i64 4, ptr %13) #6
  ret i32 %86
}