; Function Attrs: nofree norecurse nosync nounwind memory(argmem: readwrite) uwtable
define internal i32 @encode_mcu_AC_refine_prepare(ptr noundef readonly captures(none) %0, ptr noundef readonly captures(none) %1, i32 noundef %2, i32 noundef %3, ptr noundef writeonly captures(none) %4, ptr noundef writeonly captures(none) %5) #3 {
  %7 = icmp sgt i32 %2, 0
  br i1 %7, label %.lr.ph.preheader, label %._crit_edge

.lr.ph.preheader:                                 ; preds = %6
  %wide.trip.count = zext nneg i32 %2 to i64
  br label %.lr.ph

.lr.ph:                                           ; preds = %.lr.ph.preheader, %25
  %indvars.iv = phi i64 [ 0, %.lr.ph.preheader ], [ %indvars.iv.next, %25 ]
  %.02936 = phi i64 [ 0, %.lr.ph.preheader ], [ %.1, %25 ]
  %.03035 = phi i64 [ 0, %.lr.ph.preheader ], [ %.131, %25 ]
  %.03234 = phi i32 [ 0, %.lr.ph.preheader ], [ %spec.select, %25 ]
  %8 = getelementptr inbounds nuw i32, ptr %1, i64 %indvars.iv
  %9 = load i32, ptr %8, align 4, !tbaa !44
  %10 = sext i32 %9 to i64
  %11 = getelementptr inbounds i16, ptr %0, i64 %10
  %12 = load i16, ptr %11, align 2, !tbaa !77
  %13 = sext i16 %12 to i32
  %14 = ashr i32 %13, 31
  %15 = xor i32 %14, %13
  %16 = sub nsw i32 %15, %14
  %17 = ashr i32 %16, %3
  %.not = icmp eq i32 %17, 0
  br i1 %.not, label %25, label %18

18:                                               ; preds = %.lr.ph
  %19 = shl nuw i64 1, %indvars.iv
  %20 = or i64 %19, %.03035
  %21 = add nsw i32 %14, 1
  %22 = zext nneg i32 %21 to i64
  %23 = shl nuw i64 %22, %indvars.iv
  %24 = or i64 %23, %.02936
  br label %25

25:                                               ; preds = %18, %.lr.ph
  %.131 = phi i64 [ %20, %18 ], [ %.03035, %.lr.ph ]
  %.1 = phi i64 [ %24, %18 ], [ %.02936, %.lr.ph ]
  %26 = trunc i32 %17 to i16
  %27 = getelementptr inbounds nuw i16, ptr %4, i64 %indvars.iv
  store i16 %26, ptr %27, align 2, !tbaa !77
  %28 = icmp eq i32 %17, 1
  %29 = trunc nuw nsw i64 %indvars.iv to i32
  %spec.select = select i1 %28, i32 %29, i32 %.03234
  %indvars.iv.next = add nuw nsw i64 %indvars.iv, 1
  %exitcond.not = icmp eq i64 %indvars.iv.next, %wide.trip.count
  br i1 %exitcond.not, label %._crit_edge, label %.lr.ph, !llvm.loop !93

._crit_edge:                                      ; preds = %25, %6
  %.032.lcssa = phi i32 [ 0, %6 ], [ %spec.select, %25 ]
  %.030.lcssa = phi i64 [ 0, %6 ], [ %.131, %25 ]
  %.029.lcssa = phi i64 [ 0, %6 ], [ %.1, %25 ]
  store i64 %.030.lcssa, ptr %5, align 8, !tbaa !78
  %30 = getelementptr inbounds nuw i8, ptr %5, i64 8
  store i64 %.029.lcssa, ptr %30, align 8, !tbaa !78
  ret i32 %.032.lcssa
}